(ivalueFunction.NN
NN
p1
(dp2
S'nh'
p3
I6
sS'ni'
p4
I325
sS'ci'
p5
(lp6
(lp7
F-0
aF0
aF-0
aF0
aF0
aF-0
aa(lp8
F-0
aF0
aF-0
aF0
aF0
aF-0
aa(lp9
F-0
aF0
aF-0
aF0
aF0
aF-0
aa(lp10
F-0.004075566588165172
aF0.0058559012641457402
aF-0.00017771908618189629
aF0.0036399811354609081
aF0.0048061337549593743
aF-0.0085463455437115744
aa(lp11
F-0.004075566588165172
aF0.0058559012641457402
aF-0.00017771908618189629
aF0.0036399811354609081
aF0.0048061337549593743
aF-0.0085463455437115744
aa(lp12
F-0.004075566588165172
aF0.0058559012641457402
aF-0.00017771908618189629
aF0.0036399811354609081
aF0.0048061337549593743
aF-0.0085463455437115744
aa(lp13
F-0.004075566588165172
aF0.0058559012641457402
aF-0.00017771908618189629
aF0.0036399811354609081
aF0.0048061337549593743
aF-0.0085463455437115744
aa(lp14
F-0.004075566588165172
aF0.0058559012641457402
aF-0.00017771908618189629
aF0.0036399811354609081
aF0.0048061337549593743
aF-0.0085463455437115744
aa(lp15
F-0.004075566588165172
aF0.0058559012641457402
aF-0.00017771908618189629
aF0.0036399811354609081
aF0.0048061337549593743
aF-0.0085463455437115744
aa(lp16
F-0
aF0
aF-0
aF0
aF0
aF-0
aa(lp17
F-0
aF0
aF-0
aF0
aF0
aF-0
aa(lp18
F-0
aF0
aF-0
aF0
aF0
aF-0
aa(lp19
F-0
aF0
aF-0
aF0
aF0
aF-0
aa(lp20
F-0
aF0
aF-0
aF0
aF0
aF-0
aa(lp21
F-0
aF0
aF-0
aF0
aF0
aF-0
aa(lp22
F-0
aF0
aF-0
aF0
aF0
aF-0
aa(lp23
F-0
aF0
aF-0
aF0
aF0
aF-0
aa(lp24
F-0
aF0
aF-0
aF0
aF0
aF-0
aa(lp25
F-0
aF0
aF-0
aF0
aF0
aF-0
aa(lp26
F-0
aF0
aF-0
aF0
aF0
aF-0
aa(lp27
F-0
aF0
aF-0
aF0
aF0
aF-0
aa(lp28
F-0
aF0
aF-0
aF0
aF0
aF-0
aa(lp29
F-0
aF0
aF-0
aF0
aF0
aF-0
aa(lp30
F-0
aF0
aF-0
aF0
aF0
aF-0
aa(lp31
F-0
aF0
aF-0
aF0
aF0
aF-0
aa(lp32
F-0
aF0
aF-0
aF0
aF0
aF-0
aa(lp33
F-0
aF0
aF-0
aF0
aF0
aF-0
aa(lp34
F-0
aF0
aF-0
aF0
aF0
aF-0
aa(lp35
F-0
aF0
aF-0
aF0
aF0
aF-0
aa(lp36
F-0.004075566588165172
aF0.0058559012641457402
aF-0.00017771908618189629
aF0.0036399811354609081
aF0.0048061337549593743
aF-0.0085463455437115744
aa(lp37
F-0
aF0
aF-0
aF0
aF0
aF-0
aa(lp38
F-0
aF0
aF-0
aF0
aF0
aF-0
aa(lp39
F-0.004075566588165172
aF0.0058559012641457402
aF-0.00017771908618189629
aF0.0036399811354609081
aF0.0048061337549593743
aF-0.0085463455437115744
aa(lp40
F-0
aF0
aF-0
aF0
aF0
aF-0
aa(lp41
F-0
aF0
aF-0
aF0
aF0
aF-0
aa(lp42
F-0.004075566588165172
aF0.0058559012641457402
aF-0.00017771908618189629
aF0.0036399811354609081
aF0.0048061337549593743
aF-0.0085463455437115744
aa(lp43
F-0
aF0
aF-0
aF0
aF0
aF-0
aa(lp44
F-0
aF0
aF-0
aF0
aF0
aF-0
aa(lp45
F-0
aF0
aF-0
aF0
aF0
aF-0
aa(lp46
F-0
aF0
aF-0
aF0
aF0
aF-0
aa(lp47
F-0
aF0
aF-0
aF0
aF0
aF-0
aa(lp48
F-0
aF0
aF-0
aF0
aF0
aF-0
aa(lp49
F-0
aF0
aF-0
aF0
aF0
aF-0
aa(lp50
F-0
aF0
aF-0
aF0
aF0
aF-0
aa(lp51
F-0
aF0
aF-0
aF0
aF0
aF-0
aa(lp52
F-0
aF0
aF-0
aF0
aF0
aF-0
aa(lp53
F-0
aF0
aF-0
aF0
aF0
aF-0
aa(lp54
F-0
aF0
aF-0
aF0
aF0
aF-0
aa(lp55
F-0
aF0
aF-0
aF0
aF0
aF-0
aa(lp56
F-0
aF0
aF-0
aF0
aF0
aF-0
aa(lp57
F-0
aF0
aF-0
aF0
aF0
aF-0
aa(lp58
F-0
aF0
aF-0
aF0
aF0
aF-0
aa(lp59
F-0
aF0
aF-0
aF0
aF0
aF-0
aa(lp60
F-0
aF0
aF-0
aF0
aF0
aF-0
aa(lp61
F-0.004075566588165172
aF0.0058559012641457402
aF-0.00017771908618189629
aF0.0036399811354609081
aF0.0048061337549593743
aF-0.0085463455437115744
aa(lp62
F-0.004075566588165172
aF0.0058559012641457402
aF-0.00017771908618189629
aF0.0036399811354609081
aF0.0048061337549593743
aF-0.0085463455437115744
aa(lp63
F-0.004075566588165172
aF0.0058559012641457402
aF-0.00017771908618189629
aF0.0036399811354609081
aF0.0048061337549593743
aF-0.0085463455437115744
aa(lp64
F-0
aF0
aF-0
aF0
aF0
aF-0
aa(lp65
F-0
aF0
aF-0
aF0
aF0
aF-0
aa(lp66
F-0
aF0
aF-0
aF0
aF0
aF-0
aa(lp67
F-0
aF0
aF-0
aF0
aF0
aF-0
aa(lp68
F-0
aF0
aF-0
aF0
aF0
aF-0
aa(lp69
F-0
aF0
aF-0
aF0
aF0
aF-0
aa(lp70
F-0
aF0
aF-0
aF0
aF0
aF-0
aa(lp71
F-0.004075566588165172
aF0.0058559012641457402
aF-0.00017771908618189629
aF0.0036399811354609081
aF0.0048061337549593743
aF-0.0085463455437115744
aa(lp72
F-0.004075566588165172
aF0.0058559012641457402
aF-0.00017771908618189629
aF0.0036399811354609081
aF0.0048061337549593743
aF-0.0085463455437115744
aa(lp73
F-0
aF0
aF-0
aF0
aF0
aF-0
aa(lp74
F-0.004075566588165172
aF0.0058559012641457402
aF-0.00017771908618189629
aF0.0036399811354609081
aF0.0048061337549593743
aF-0.0085463455437115744
aa(lp75
F-0.004075566588165172
aF0.0058559012641457402
aF-0.00017771908618189629
aF0.0036399811354609081
aF0.0048061337549593743
aF-0.0085463455437115744
aa(lp76
F-0
aF0
aF-0
aF0
aF0
aF-0
aa(lp77
F-0.004075566588165172
aF0.0058559012641457402
aF-0.00017771908618189629
aF0.0036399811354609081
aF0.0048061337549593743
aF-0.0085463455437115744
aa(lp78
F-0.004075566588165172
aF0.0058559012641457402
aF-0.00017771908618189629
aF0.0036399811354609081
aF0.0048061337549593743
aF-0.0085463455437115744
aa(lp79
F-0
aF0
aF-0
aF0
aF0
aF-0
aa(lp80
F-0
aF0
aF-0
aF0
aF0
aF-0
aa(lp81
F-0
aF0
aF-0
aF0
aF0
aF-0
aa(lp82
F-0
aF0
aF-0
aF0
aF0
aF-0
aa(lp83
F-0
aF0
aF-0
aF0
aF0
aF-0
aa(lp84
F-0
aF0
aF-0
aF0
aF0
aF-0
aa(lp85
F-0
aF0
aF-0
aF0
aF0
aF-0
aa(lp86
F-0
aF0
aF-0
aF0
aF0
aF-0
aa(lp87
F-0
aF0
aF-0
aF0
aF0
aF-0
aa(lp88
F-0
aF0
aF-0
aF0
aF0
aF-0
aa(lp89
F-0
aF0
aF-0
aF0
aF0
aF-0
aa(lp90
F-0
aF0
aF-0
aF0
aF0
aF-0
aa(lp91
F-0
aF0
aF-0
aF0
aF0
aF-0
aa(lp92
F-0
aF0
aF-0
aF0
aF0
aF-0
aa(lp93
F-0
aF0
aF-0
aF0
aF0
aF-0
aa(lp94
F-0
aF0
aF-0
aF0
aF0
aF-0
aa(lp95
F-0
aF0
aF-0
aF0
aF0
aF-0
aa(lp96
F-0
aF0
aF-0
aF0
aF0
aF-0
aa(lp97
F-0
aF0
aF-0
aF0
aF0
aF-0
aa(lp98
F-0
aF0
aF-0
aF0
aF0
aF-0
aa(lp99
F-0
aF0
aF-0
aF0
aF0
aF-0
aa(lp100
F-0
aF0
aF-0
aF0
aF0
aF-0
aa(lp101
F-0
aF0
aF-0
aF0
aF0
aF-0
aa(lp102
F-0
aF0
aF-0
aF0
aF0
aF-0
aa(lp103
F-0
aF0
aF-0
aF0
aF0
aF-0
aa(lp104
F-0
aF0
aF-0
aF0
aF0
aF-0
aa(lp105
F-0
aF0
aF-0
aF0
aF0
aF-0
aa(lp106
F-0
aF0
aF-0
aF0
aF0
aF-0
aa(lp107
F-0
aF0
aF-0
aF0
aF0
aF-0
aa(lp108
F-0
aF0
aF-0
aF0
aF0
aF-0
aa(lp109
F-0
aF0
aF-0
aF0
aF0
aF-0
aa(lp110
F-0
aF0
aF-0
aF0
aF0
aF-0
aa(lp111
F-0
aF0
aF-0
aF0
aF0
aF-0
aa(lp112
F-0
aF0
aF-0
aF0
aF0
aF-0
aa(lp113
F-0
aF0
aF-0
aF0
aF0
aF-0
aa(lp114
F-0
aF0
aF-0
aF0
aF0
aF-0
aa(lp115
F-0
aF0
aF-0
aF0
aF0
aF-0
aa(lp116
F-0
aF0
aF-0
aF0
aF0
aF-0
aa(lp117
F-0
aF0
aF-0
aF0
aF0
aF-0
aa(lp118
F-0
aF0
aF-0
aF0
aF0
aF-0
aa(lp119
F-0
aF0
aF-0
aF0
aF0
aF-0
aa(lp120
F-0
aF0
aF-0
aF0
aF0
aF-0
aa(lp121
F-0
aF0
aF-0
aF0
aF0
aF-0
aa(lp122
F-0
aF0
aF-0
aF0
aF0
aF-0
aa(lp123
F-0
aF0
aF-0
aF0
aF0
aF-0
aa(lp124
F-0
aF0
aF-0
aF0
aF0
aF-0
aa(lp125
F-0
aF0
aF-0
aF0
aF0
aF-0
aa(lp126
F-0
aF0
aF-0
aF0
aF0
aF-0
aa(lp127
F-0
aF0
aF-0
aF0
aF0
aF-0
aa(lp128
F-0
aF0
aF-0
aF0
aF0
aF-0
aa(lp129
F-0
aF0
aF-0
aF0
aF0
aF-0
aa(lp130
F-0
aF0
aF-0
aF0
aF0
aF-0
aa(lp131
F-0
aF0
aF-0
aF0
aF0
aF-0
aa(lp132
F-0
aF0
aF-0
aF0
aF0
aF-0
aa(lp133
F-0.004075566588165172
aF0.0058559012641457402
aF-0.00017771908618189629
aF0.0036399811354609081
aF0.0048061337549593743
aF-0.0085463455437115744
aa(lp134
F-0.004075566588165172
aF0.0058559012641457402
aF-0.00017771908618189629
aF0.0036399811354609081
aF0.0048061337549593743
aF-0.0085463455437115744
aa(lp135
F-0.004075566588165172
aF0.0058559012641457402
aF-0.00017771908618189629
aF0.0036399811354609081
aF0.0048061337549593743
aF-0.0085463455437115744
aa(lp136
F-0.004075566588165172
aF0.0058559012641457402
aF-0.00017771908618189629
aF0.0036399811354609081
aF0.0048061337549593743
aF-0.0085463455437115744
aa(lp137
F-0.004075566588165172
aF0.0058559012641457402
aF-0.00017771908618189629
aF0.0036399811354609081
aF0.0048061337549593743
aF-0.0085463455437115744
aa(lp138
F-0.004075566588165172
aF0.0058559012641457402
aF-0.00017771908618189629
aF0.0036399811354609081
aF0.0048061337549593743
aF-0.0085463455437115744
aa(lp139
F-0.004075566588165172
aF0.0058559012641457402
aF-0.00017771908618189629
aF0.0036399811354609081
aF0.0048061337549593743
aF-0.0085463455437115744
aa(lp140
F-0.004075566588165172
aF0.0058559012641457402
aF-0.00017771908618189629
aF0.0036399811354609081
aF0.0048061337549593743
aF-0.0085463455437115744
aa(lp141
F-0.004075566588165172
aF0.0058559012641457402
aF-0.00017771908618189629
aF0.0036399811354609081
aF0.0048061337549593743
aF-0.0085463455437115744
aa(lp142
F-0
aF0
aF-0
aF0
aF0
aF-0
aa(lp143
F-0
aF0
aF-0
aF0
aF0
aF-0
aa(lp144
F-0
aF0
aF-0
aF0
aF0
aF-0
aa(lp145
F-0
aF0
aF-0
aF0
aF0
aF-0
aa(lp146
F-0
aF0
aF-0
aF0
aF0
aF-0
aa(lp147
F-0
aF0
aF-0
aF0
aF0
aF-0
aa(lp148
F-0
aF0
aF-0
aF0
aF0
aF-0
aa(lp149
F-0
aF0
aF-0
aF0
aF0
aF-0
aa(lp150
F-0
aF0
aF-0
aF0
aF0
aF-0
aa(lp151
F-0
aF0
aF-0
aF0
aF0
aF-0
aa(lp152
F-0
aF0
aF-0
aF0
aF0
aF-0
aa(lp153
F-0
aF0
aF-0
aF0
aF0
aF-0
aa(lp154
F-0
aF0
aF-0
aF0
aF0
aF-0
aa(lp155
F-0
aF0
aF-0
aF0
aF0
aF-0
aa(lp156
F-0
aF0
aF-0
aF0
aF0
aF-0
aa(lp157
F-0
aF0
aF-0
aF0
aF0
aF-0
aa(lp158
F-0
aF0
aF-0
aF0
aF0
aF-0
aa(lp159
F-0
aF0
aF-0
aF0
aF0
aF-0
aa(lp160
F-0
aF0
aF-0
aF0
aF0
aF-0
aa(lp161
F-0
aF0
aF-0
aF0
aF0
aF-0
aa(lp162
F-0
aF0
aF-0
aF0
aF0
aF-0
aa(lp163
F-0
aF0
aF-0
aF0
aF0
aF-0
aa(lp164
F-0
aF0
aF-0
aF0
aF0
aF-0
aa(lp165
F-0
aF0
aF-0
aF0
aF0
aF-0
aa(lp166
F-0
aF0
aF-0
aF0
aF0
aF-0
aa(lp167
F-0
aF0
aF-0
aF0
aF0
aF-0
aa(lp168
F-0
aF0
aF-0
aF0
aF0
aF-0
aa(lp169
F-0
aF0
aF-0
aF0
aF0
aF-0
aa(lp170
F-0
aF0
aF-0
aF0
aF0
aF-0
aa(lp171
F-0
aF0
aF-0
aF0
aF0
aF-0
aa(lp172
F-0
aF0
aF-0
aF0
aF0
aF-0
aa(lp173
F-0
aF0
aF-0
aF0
aF0
aF-0
aa(lp174
F-0
aF0
aF-0
aF0
aF0
aF-0
aa(lp175
F-0
aF0
aF-0
aF0
aF0
aF-0
aa(lp176
F-0
aF0
aF-0
aF0
aF0
aF-0
aa(lp177
F-0
aF0
aF-0
aF0
aF0
aF-0
aa(lp178
F-0
aF0
aF-0
aF0
aF0
aF-0
aa(lp179
F-0
aF0
aF-0
aF0
aF0
aF-0
aa(lp180
F-0
aF0
aF-0
aF0
aF0
aF-0
aa(lp181
F-0
aF0
aF-0
aF0
aF0
aF-0
aa(lp182
F-0
aF0
aF-0
aF0
aF0
aF-0
aa(lp183
F-0
aF0
aF-0
aF0
aF0
aF-0
aa(lp184
F-0
aF0
aF-0
aF0
aF0
aF-0
aa(lp185
F-0
aF0
aF-0
aF0
aF0
aF-0
aa(lp186
F-0
aF0
aF-0
aF0
aF0
aF-0
aa(lp187
F-0
aF0
aF-0
aF0
aF0
aF-0
aa(lp188
F-0
aF0
aF-0
aF0
aF0
aF-0
aa(lp189
F-0
aF0
aF-0
aF0
aF0
aF-0
aa(lp190
F-0
aF0
aF-0
aF0
aF0
aF-0
aa(lp191
F-0
aF0
aF-0
aF0
aF0
aF-0
aa(lp192
F-0
aF0
aF-0
aF0
aF0
aF-0
aa(lp193
F-0
aF0
aF-0
aF0
aF0
aF-0
aa(lp194
F-0
aF0
aF-0
aF0
aF0
aF-0
aa(lp195
F-0
aF0
aF-0
aF0
aF0
aF-0
aa(lp196
F-0.004075566588165172
aF0.0058559012641457402
aF-0.00017771908618189629
aF0.0036399811354609081
aF0.0048061337549593743
aF-0.0085463455437115744
aa(lp197
F-0.004075566588165172
aF0.0058559012641457402
aF-0.00017771908618189629
aF0.0036399811354609081
aF0.0048061337549593743
aF-0.0085463455437115744
aa(lp198
F-0
aF0
aF-0
aF0
aF0
aF-0
aa(lp199
F-0.004075566588165172
aF0.0058559012641457402
aF-0.00017771908618189629
aF0.0036399811354609081
aF0.0048061337549593743
aF-0.0085463455437115744
aa(lp200
F-0.004075566588165172
aF0.0058559012641457402
aF-0.00017771908618189629
aF0.0036399811354609081
aF0.0048061337549593743
aF-0.0085463455437115744
aa(lp201
F-0
aF0
aF-0
aF0
aF0
aF-0
aa(lp202
F-0.004075566588165172
aF0.0058559012641457402
aF-0.00017771908618189629
aF0.0036399811354609081
aF0.0048061337549593743
aF-0.0085463455437115744
aa(lp203
F-0.004075566588165172
aF0.0058559012641457402
aF-0.00017771908618189629
aF0.0036399811354609081
aF0.0048061337549593743
aF-0.0085463455437115744
aa(lp204
F-0
aF0
aF-0
aF0
aF0
aF-0
aa(lp205
F-0
aF0
aF-0
aF0
aF0
aF-0
aa(lp206
F-0
aF0
aF-0
aF0
aF0
aF-0
aa(lp207
F-0
aF0
aF-0
aF0
aF0
aF-0
aa(lp208
F-0
aF0
aF-0
aF0
aF0
aF-0
aa(lp209
F-0
aF0
aF-0
aF0
aF0
aF-0
aa(lp210
F-0
aF0
aF-0
aF0
aF0
aF-0
aa(lp211
F-0
aF0
aF-0
aF0
aF0
aF-0
aa(lp212
F-0
aF0
aF-0
aF0
aF0
aF-0
aa(lp213
F-0
aF0
aF-0
aF0
aF0
aF-0
aa(lp214
F-0
aF0
aF-0
aF0
aF0
aF-0
aa(lp215
F-0
aF0
aF-0
aF0
aF0
aF-0
aa(lp216
F-0
aF0
aF-0
aF0
aF0
aF-0
aa(lp217
F-0
aF0
aF-0
aF0
aF0
aF-0
aa(lp218
F-0
aF0
aF-0
aF0
aF0
aF-0
aa(lp219
F-0
aF0
aF-0
aF0
aF0
aF-0
aa(lp220
F-0.004075566588165172
aF0.0058559012641457402
aF-0.00017771908618189629
aF0.0036399811354609081
aF0.0048061337549593743
aF-0.0085463455437115744
aa(lp221
F-0.004075566588165172
aF0.0058559012641457402
aF-0.00017771908618189629
aF0.0036399811354609081
aF0.0048061337549593743
aF-0.0085463455437115744
aa(lp222
F-0.004075566588165172
aF0.0058559012641457402
aF-0.00017771908618189629
aF0.0036399811354609081
aF0.0048061337549593743
aF-0.0085463455437115744
aa(lp223
F-0
aF0
aF-0
aF0
aF0
aF-0
aa(lp224
F-0
aF0
aF-0
aF0
aF0
aF-0
aa(lp225
F-0
aF0
aF-0
aF0
aF0
aF-0
aa(lp226
F-0
aF0
aF-0
aF0
aF0
aF-0
aa(lp227
F-0
aF0
aF-0
aF0
aF0
aF-0
aa(lp228
F-0
aF0
aF-0
aF0
aF0
aF-0
aa(lp229
F-0
aF0
aF-0
aF0
aF0
aF-0
aa(lp230
F-0
aF0
aF-0
aF0
aF0
aF-0
aa(lp231
F-0
aF0
aF-0
aF0
aF0
aF-0
aa(lp232
F-0
aF0
aF-0
aF0
aF0
aF-0
aa(lp233
F-0
aF0
aF-0
aF0
aF0
aF-0
aa(lp234
F-0
aF0
aF-0
aF0
aF0
aF-0
aa(lp235
F-0
aF0
aF-0
aF0
aF0
aF-0
aa(lp236
F-0
aF0
aF-0
aF0
aF0
aF-0
aa(lp237
F-0
aF0
aF-0
aF0
aF0
aF-0
aa(lp238
F-0
aF0
aF-0
aF0
aF0
aF-0
aa(lp239
F-0
aF0
aF-0
aF0
aF0
aF-0
aa(lp240
F-0
aF0
aF-0
aF0
aF0
aF-0
aa(lp241
F-0
aF0
aF-0
aF0
aF0
aF-0
aa(lp242
F-0
aF0
aF-0
aF0
aF0
aF-0
aa(lp243
F-0
aF0
aF-0
aF0
aF0
aF-0
aa(lp244
F-0
aF0
aF-0
aF0
aF0
aF-0
aa(lp245
F-0
aF0
aF-0
aF0
aF0
aF-0
aa(lp246
F-0
aF0
aF-0
aF0
aF0
aF-0
aa(lp247
F-0
aF0
aF-0
aF0
aF0
aF-0
aa(lp248
F-0
aF0
aF-0
aF0
aF0
aF-0
aa(lp249
F-0
aF0
aF-0
aF0
aF0
aF-0
aa(lp250
F-0
aF0
aF-0
aF0
aF0
aF-0
aa(lp251
F-0
aF0
aF-0
aF0
aF0
aF-0
aa(lp252
F-0
aF0
aF-0
aF0
aF0
aF-0
aa(lp253
F-0
aF0
aF-0
aF0
aF0
aF-0
aa(lp254
F-0
aF0
aF-0
aF0
aF0
aF-0
aa(lp255
F-0
aF0
aF-0
aF0
aF0
aF-0
aa(lp256
F-0
aF0
aF-0
aF0
aF0
aF-0
aa(lp257
F-0
aF0
aF-0
aF0
aF0
aF-0
aa(lp258
F-0
aF0
aF-0
aF0
aF0
aF-0
aa(lp259
F-0.004075566588165172
aF0.0058559012641457402
aF-0.00017771908618189629
aF0.0036399811354609081
aF0.0048061337549593743
aF-0.0085463455437115744
aa(lp260
F-0.004075566588165172
aF0.0058559012641457402
aF-0.00017771908618189629
aF0.0036399811354609081
aF0.0048061337549593743
aF-0.0085463455437115744
aa(lp261
F-0.004075566588165172
aF0.0058559012641457402
aF-0.00017771908618189629
aF0.0036399811354609081
aF0.0048061337549593743
aF-0.0085463455437115744
aa(lp262
F-0.004075566588165172
aF0.0058559012641457402
aF-0.00017771908618189629
aF0.0036399811354609081
aF0.0048061337549593743
aF-0.0085463455437115744
aa(lp263
F-0.004075566588165172
aF0.0058559012641457402
aF-0.00017771908618189629
aF0.0036399811354609081
aF0.0048061337549593743
aF-0.0085463455437115744
aa(lp264
F-0.004075566588165172
aF0.0058559012641457402
aF-0.00017771908618189629
aF0.0036399811354609081
aF0.0048061337549593743
aF-0.0085463455437115744
aa(lp265
F-0.004075566588165172
aF0.0058559012641457402
aF-0.00017771908618189629
aF0.0036399811354609081
aF0.0048061337549593743
aF-0.0085463455437115744
aa(lp266
F-0.004075566588165172
aF0.0058559012641457402
aF-0.00017771908618189629
aF0.0036399811354609081
aF0.0048061337549593743
aF-0.0085463455437115744
aa(lp267
F-0.004075566588165172
aF0.0058559012641457402
aF-0.00017771908618189629
aF0.0036399811354609081
aF0.0048061337549593743
aF-0.0085463455437115744
aa(lp268
F-0
aF0
aF-0
aF0
aF0
aF-0
aa(lp269
F-0
aF0
aF-0
aF0
aF0
aF-0
aa(lp270
F-0
aF0
aF-0
aF0
aF0
aF-0
aa(lp271
F-0
aF0
aF-0
aF0
aF0
aF-0
aa(lp272
F-0
aF0
aF-0
aF0
aF0
aF-0
aa(lp273
F-0
aF0
aF-0
aF0
aF0
aF-0
aa(lp274
F-0
aF0
aF-0
aF0
aF0
aF-0
aa(lp275
F-0
aF0
aF-0
aF0
aF0
aF-0
aa(lp276
F-0
aF0
aF-0
aF0
aF0
aF-0
aa(lp277
F-0
aF0
aF-0
aF0
aF0
aF-0
aa(lp278
F-0
aF0
aF-0
aF0
aF0
aF-0
aa(lp279
F-0
aF0
aF-0
aF0
aF0
aF-0
aa(lp280
F-0
aF0
aF-0
aF0
aF0
aF-0
aa(lp281
F-0
aF0
aF-0
aF0
aF0
aF-0
aa(lp282
F-0
aF0
aF-0
aF0
aF0
aF-0
aa(lp283
F-0
aF0
aF-0
aF0
aF0
aF-0
aa(lp284
F-0
aF0
aF-0
aF0
aF0
aF-0
aa(lp285
F-0
aF0
aF-0
aF0
aF0
aF-0
aa(lp286
F-0.004075566588165172
aF0.0058559012641457402
aF-0.00017771908618189629
aF0.0036399811354609081
aF0.0048061337549593743
aF-0.0085463455437115744
aa(lp287
F-0
aF0
aF-0
aF0
aF0
aF-0
aa(lp288
F-0
aF0
aF-0
aF0
aF0
aF-0
aa(lp289
F-0.004075566588165172
aF0.0058559012641457402
aF-0.00017771908618189629
aF0.0036399811354609081
aF0.0048061337549593743
aF-0.0085463455437115744
aa(lp290
F-0
aF0
aF-0
aF0
aF0
aF-0
aa(lp291
F-0
aF0
aF-0
aF0
aF0
aF-0
aa(lp292
F-0.004075566588165172
aF0.0058559012641457402
aF-0.00017771908618189629
aF0.0036399811354609081
aF0.0048061337549593743
aF-0.0085463455437115744
aa(lp293
F-0
aF0
aF-0
aF0
aF0
aF-0
aa(lp294
F-0
aF0
aF-0
aF0
aF0
aF-0
aa(lp295
F-0
aF0
aF-0
aF0
aF0
aF-0
aa(lp296
F-0
aF0
aF-0
aF0
aF0
aF-0
aa(lp297
F-0
aF0
aF-0
aF0
aF0
aF-0
aa(lp298
F-0
aF0
aF-0
aF0
aF0
aF-0
aa(lp299
F-0
aF0
aF-0
aF0
aF0
aF-0
aa(lp300
F-0
aF0
aF-0
aF0
aF0
aF-0
aa(lp301
F-0
aF0
aF-0
aF0
aF0
aF-0
aa(lp302
F-0
aF0
aF-0
aF0
aF0
aF-0
aa(lp303
F-0
aF0
aF-0
aF0
aF0
aF-0
aa(lp304
F-0
aF0
aF-0
aF0
aF0
aF-0
aa(lp305
F-0
aF0
aF-0
aF0
aF0
aF-0
aa(lp306
F-0
aF0
aF-0
aF0
aF0
aF-0
aa(lp307
F-0
aF0
aF-0
aF0
aF0
aF-0
aa(lp308
F-0
aF0
aF-0
aF0
aF0
aF-0
aa(lp309
F-0
aF0
aF-0
aF0
aF0
aF-0
aa(lp310
F-0
aF0
aF-0
aF0
aF0
aF-0
aa(lp311
F-0
aF0
aF-0
aF0
aF0
aF-0
aa(lp312
F-0
aF0
aF-0
aF0
aF0
aF-0
aa(lp313
F-0
aF0
aF-0
aF0
aF0
aF-0
aa(lp314
F-0
aF0
aF-0
aF0
aF0
aF-0
aa(lp315
F-0
aF0
aF-0
aF0
aF0
aF-0
aa(lp316
F-0
aF0
aF-0
aF0
aF0
aF-0
aa(lp317
F-0
aF0
aF-0
aF0
aF0
aF-0
aa(lp318
F-0
aF0
aF-0
aF0
aF0
aF-0
aa(lp319
F-0
aF0
aF-0
aF0
aF0
aF-0
aa(lp320
F-0
aF0
aF-0
aF0
aF0
aF-0
aa(lp321
F-0
aF0
aF-0
aF0
aF0
aF-0
aa(lp322
F-0.004075566588165172
aF0.0058559012641457402
aF-0.00017771908618189629
aF0.0036399811354609081
aF0.0048061337549593743
aF-0.0085463455437115744
aa(lp323
F-0.004075566588165172
aF0.0058559012641457402
aF-0.00017771908618189629
aF0.0036399811354609081
aF0.0048061337549593743
aF-0.0085463455437115744
aa(lp324
F-0.004075566588165172
aF0.0058559012641457402
aF-0.00017771908618189629
aF0.0036399811354609081
aF0.0048061337549593743
aF-0.0085463455437115744
aa(lp325
F-0.004075566588165172
aF0.0058559012641457402
aF-0.00017771908618189629
aF0.0036399811354609081
aF0.0048061337549593743
aF-0.0085463455437115744
aa(lp326
F-0.004075566588165172
aF0.0058559012641457402
aF-0.00017771908618189629
aF0.0036399811354609081
aF0.0048061337549593743
aF-0.0085463455437115744
aa(lp327
F-0.004075566588165172
aF0.0058559012641457402
aF-0.00017771908618189629
aF0.0036399811354609081
aF0.0048061337549593743
aF-0.0085463455437115744
aa(lp328
F-0
aF0
aF-0
aF0
aF0
aF-0
aa(lp329
F-0
aF0
aF-0
aF0
aF0
aF-0
aa(lp330
F-0
aF0
aF-0
aF0
aF0
aF-0
aa(lp331
F-0.004075566588165172
aF0.0058559012641457402
aF-0.00017771908618189629
aF0.0036399811354609081
aF0.0048061337549593743
aF-0.0085463455437115744
aasS'co'
p332
(lp333
(lp334
F-0.011306128301212375
aa(lp335
F0.0090709895030846258
aa(lp336
F-0.015608025936898967
aa(lp337
F-0.0010799042762795372
aa(lp338
F0.0049255041704889596
aa(lp339
F0.012844316583492598
aasS'verbose'
p340
I01
sS'no'
p341
I1
sS'ai'
p342
(lp343
F0
aF0
aF0
aF0
aF1
aF1
aF0
aF1
aF1
aF0
aF0
aF0
aF0
aF0
aF0
aF0
aF0
aF0
aF0
aF0
aF0
aF1
aF0
aF0
aF1
aF0
aF0
aF0
aF0
aF1
aF0
aF0
aF1
aF0
aF0
aF1
aF0
aF0
aF0
aF0
aF0
aF0
aF0
aF0
aF0
aF0
aF0
aF0
aF0
aF0
aF0
aF0
aF0
aF0
aF0
aF1
aF1
aF0
aF0
aF0
aF0
aF0
aF0
aF0
aF0
aF0
aF1
aF1
aF1
aF1
aF1
aF1
aF1
aF0
aF0
aF0
aF0
aF0
aF0
aF0
aF0
aF0
aF0
aF0
aF0
aF0
aF0
aF0
aF0
aF0
aF0
aF0
aF0
aF0
aF0
aF0
aF0
aF0
aF0
aF0
aF0
aF0
aF0
aF0
aF0
aF0
aF0
aF0
aF0
aF0
aF0
aF0
aF0
aF0
aF0
aF0
aF0
aF0
aF0
aF0
aF0
aF0
aF0
aF0
aF0
aF0
aF0
aF1
aF1
aF0
aF1
aF1
aF0
aF1
aF1
aF0
aF0
aF0
aF0
aF0
aF0
aF0
aF0
aF0
aF0
aF0
aF0
aF0
aF0
aF0
aF0
aF0
aF0
aF1
aF0
aF0
aF1
aF0
aF0
aF1
aF0
aF0
aF0
aF0
aF0
aF0
aF0
aF0
aF0
aF0
aF0
aF0
aF0
aF0
aF0
aF0
aF0
aF0
aF0
aF0
aF0
aF0
aF0
aF0
aF0
aF0
aF0
aF0
aF0
aF1
aF1
aF0
aF1
aF1
aF0
aF1
aF1
aF0
aF0
aF0
aF1
aF0
aF0
aF0
aF0
aF0
aF0
aF0
aF0
aF0
aF0
aF0
aF0
aF0
aF1
aF1
aF1
aF0
aF0
aF1
aF0
aF0
aF1
aF0
aF0
aF0
aF0
aF0
aF0
aF0
aF0
aF0
aF0
aF0
aF0
aF0
aF0
aF0
aF0
aF0
aF0
aF0
aF0
aF0
aF0
aF0
aF0
aF0
aF0
aF0
aF0
aF0
aF1
aF1
aF0
aF1
aF1
aF0
aF1
aF1
aF0
aF0
aF0
aF0
aF0
aF0
aF0
aF0
aF0
aF0
aF0
aF0
aF0
aF0
aF0
aF0
aF0
aF0
aF0
aF1
aF1
aF1
aF0
aF0
aF0
aF0
aF0
aF0
aF0
aF0
aF0
aF0
aF0
aF0
aF0
aF0
aF0
aF0
aF0
aF0
aF0
aF0
aF0
aF0
aF0
aF0
aF0
aF0
aF0
aF0
aF0
aF1
aF0
aF0
aF1
aF0
aF1
aF1
aF0
aF1
aF1
aF0
aF0
aF0
aF1
asS'ah'
p344
(lp345
F-0.64750919857955547
aF0.72644373579443022
aF-0.9989795028970101
aF-0.70224072827843731
aF0.069001872161813194
aF0.98397319988879861
asS'ao'
p346
(lp347
F0.63565350856495995
asS'wo'
p348
(lp349
(lp350
F-0.54380644533619915
aa(lp351
F0.56289094731372058
aa(lp352
F-1.7739352752461248
aa(lp353
F0.23357588215388214
aa(lp354
F0.34064765296872695
aa(lp355
F-1.6685270409834325
aasS'wi'
p356
(lp357
(lp358
F0.09009619251617286
aF0.030642779534860387
aF0.16271888983508639
aF-0.068975662659989945
aF0.035856005413489697
aF0.087680260119160677
aa(lp359
F0.34364746953590419
aF0.4136020334336481
aF-0.20710595847146437
aF0.019700430611741242
aF0.18640391262709521
aF0.086940518667697489
aa(lp360
F0.050239035915622982
aF-0.076007426304950026
aF0.1817895698070601
aF-0.0047423911027474142
aF0.19226633449796915
aF0.019657887127559091
aa(lp361
F0.25285790156596344
aF0.25427562523182529
aF-0.37072442130497607
aF0.11802194965018754
aF0.10397070935877729
aF0.053438946576791838
aa(lp362
F0.0024489726471021503
aF0.063286182350694414
aF0.038301438164355786
aF-0.11690331901418834
aF-0.42875725540709936
aF0.22191047968235664
aa(lp363
F0.2588378301648262
aF0.23862861023900681
aF-0.29474660679987891
aF0.082236723353628069
aF0.076835016775343129
aF0.088037368163695728
aa(lp364
F0.11909634491395639
aF-0.033982453859893146
aF0.072844964484146207
aF0.24368561062226196
aF0.071516975576483816
aF-0.10949797002860716
aa(lp365
F0.23354224635651585
aF0.3135693669422881
aF-0.30894451128549305
aF0.1546765397792213
aF0.13770740889952052
aF0.20351440408699495
aa(lp366
F0.14119243717923305
aF-0.0020143682605316083
aF0.11850661511866847
aF0.12525958156739248
aF0.12804414238984266
aF0.10866778985902353
aa(lp367
F0.031741854912454445
aF-0.017212326237569724
aF-0.15400071792770664
aF8.3621928485317837e-05
aF-0.015483752250341558
aF0.059206154239167502
aa(lp368
F-0.0803804912236077
aF-0.060920324662237207
aF9.9421615329367248e-05
aF-0.15160374816050609
aF0.074007020525943462
aF0.069878104465066315
aa(lp369
F0.1139458854898929
aF0.055752060138885576
aF0.0025328693243458038
aF0.036666631419179301
aF0.018503890961738271
aF-0.065213424032310063
aa(lp370
F0.12354268823640296
aF0.014329016856431908
aF-0.024775956621876056
aF0.2116094259643885
aF0.15195628109511389
aF0.013148198914967477
aa(lp371
F0.17990594929284826
aF0.031878004298242363
aF-0.019774757347537919
aF0.064098151448955587
aF0.19850313574142908
aF0.16677648717898247
aa(lp372
F0.0064554658421247264
aF-0.17694359285207681
aF-0.075149583971289582
aF0.1786820877453531
aF0.14835683119391582
aF0.10571257642871684
aa(lp373
F-0.062981312076904869
aF0.096507687603680878
aF-0.12517941759298515
aF-0.090215909123520191
aF-0.030095919056748903
aF0.06146417732250023
aa(lp374
F0.013951513700789234
aF-0.10209985768742434
aF-0.105041951556783
aF-0.080092324261967648
aF0.096850758637028897
aF0.078285145328503059
aa(lp375
F0.0052164221909343708
aF-0.061939696897510853
aF-0.054215423806374924
aF-0.10154694680898627
aF0.013612811499497326
aF-0.018037237529825202
aa(lp376
F-0.085399218852947448
aF-0.0028170855821891749
aF-0.097900136189690387
aF-0.0075661670908000727
aF-0.065584856822613558
aF-0.10488752032213827
aa(lp377
F-0.053997616561631261
aF-0.077724697338878837
aF-0.11120287242439357
aF-0.11664379132790009
aF0.031936406062140932
aF0.18818554848038227
aa(lp378
F-0.15213987750558053
aF0.048212006704196481
aF-0.093931005549878585
aF-0.20341046859948719
aF0.014772446939455685
aF0.050463347538387625
aa(lp379
F-0.21888260403858573
aF-0.18987809152400331
aF-0.016586644161843068
aF-0.070512327250855752
aF-0.025114511299621303
aF0.13314474710237112
aa(lp380
F-0.12025768381317481
aF-0.056577879475359277
aF0.092639322490144227
aF0.13533062607736651
aF0.16739282479813261
aF-0.13223015756101292
aa(lp381
F0.12036375720056461
aF0.063720005652195114
aF-0.18672243353695045
aF0.17872377418666954
aF0.15051704783364905
aF0.070383375030957124
aa(lp382
F-0.053306224788074813
aF0.0040759189114115881
aF-0.043577613318228008
aF-0.088192013514618514
aF0.018852026669960067
aF0.052831686585953198
aa(lp383
F-0.050934063333084867
aF-0.046568233356953592
aF0.072447573019815928
aF-0.14290730669547116
aF-0.07615336168213506
aF0.18647500844683174
aa(lp384
F0.020569649663353347
aF-0.16382061809482065
aF-0.021251760754443138
aF0.015384973873905848
aF-0.11345367593675577
aF0.070146127268955805
aa(lp385
F-0.19835521163541894
aF0.079009633321844921
aF-0.10258361307634752
aF-0.099625405822575216
aF-0.048368981642350345
aF0.18195617809657685
aa(lp386
F-0.051563873668958954
aF0.044220325243860284
aF0.19509831802349228
aF-0.23093242893006316
aF-0.096680736380478513
aF0.13718362467267717
aa(lp387
F-0.1262518254622462
aF0.019819074826487905
aF-0.053835027934040665
aF-0.14135980816952506
aF-0.070991847517936538
aF0.089326335103699667
aa(lp388
F0.14532480396918401
aF0.10209801365363588
aF-0.079036039229002333
aF0.066275751393180884
aF0.14594208353857105
aF-0.00073090791688385274
aa(lp389
F0.064878355589526981
aF-0.18128812561728069
aF-0.02185912411246807
aF-0.096309230621110908
aF-0.13692537115107567
aF0.011029252067045858
aa(lp390
F-0.0015965260910502524
aF0.13011780608017592
aF0.18386825171494386
aF-0.077916160532633047
aF0.015858353044646587
aF-0.088097726109447272
aa(lp391
F-0.030888293193365484
aF0.014346614996654029
aF0.1590213276481991
aF-0.090657714340042841
aF-0.17025757114535842
aF0.16669385968897327
aa(lp392
F-0.011813175197713771
aF0.043928897356885439
aF0.12824609950781618
aF-0.11719781365306886
aF-0.11551604482444389
aF0.24816150464257228
aa(lp393
F-0.12255739755615196
aF-0.00023037497703722292
aF0.011643550791657579
aF-0.098169796043790461
aF0.023326247307246441
aF-0.0026067838369960798
aa(lp394
F-0.15249335680800927
aF-0.1807692098864751
aF-0.19039514636867091
aF-0.027940553580463101
aF-0.013101494041378817
aF0.14352321851359984
aa(lp395
F-0.12356783816834684
aF0.069414520000777552
aF0.038550342676214065
aF-0.17434971698912377
aF-0.1175722090260954
aF0.064449200360487999
aa(lp396
F-0.063946715790846584
aF0.089084257211430665
aF-0.16193454155915524
aF-0.14857664051502209
aF-0.054119038752850561
aF0.092611667688075175
aa(lp397
F0.062865280288171094
aF-0.1981292076321472
aF-0.24721611946739847
aF0.050607895018425886
aF0.24062436771408877
aF0.058767385678008766
aa(lp398
F0.17860102166799841
aF0.17537551989396744
aF0.16394047096204101
aF-0.18319818721306352
aF0.099653929356345261
aF0.080529927037943871
aa(lp399
F-0.11021672260320921
aF-0.19916162329091783
aF0.047099013509255765
aF0.094683046309270408
aF0.18328892677598124
aF-0.06409620526647275
aa(lp400
F-0.021802081846895284
aF-0.043461565912872827
aF-0.23152577234124738
aF-0.19011236439006893
aF0.037505308333355851
aF0.076516847897418916
aa(lp401
F-0.024679085864860572
aF-0.098750391722174077
aF-0.0073869611804800077
aF-0.064984767419964798
aF-0.020869678626842556
aF0.29213812711508186
aa(lp402
F-0.042476930371779839
aF0.086771636527748705
aF-0.14589079715279182
aF-0.08572543796092251
aF0.0040409690075447462
aF0.045800168540744236
aa(lp403
F-0.16944870401482767
aF0.13233924561078217
aF0.11938095701043651
aF-0.32837347400735606
aF-0.2975596431622603
aF-0.022810131139409853
aa(lp404
F-0.085643159350152764
aF-0.17035594939605139
aF0.14029591686805917
aF-0.28934504658265175
aF-0.36727149360656824
aF0.044720918144287344
aa(lp405
F-0.33166986717877406
aF0.18123925556678794
aF0.1830629113978765
aF-0.22593373352387661
aF-0.41224992803200577
aF0.077138007816906509
aa(lp406
F0.14137594805905404
aF0.16009562299626495
aF0.13380685488399258
aF-0.1975639204745791
aF-0.43612622829464071
aF-0.022703352971117041
aa(lp407
F-0.17366612908907963
aF-0.16613217235195554
aF0.099947828713234432
aF-0.1755375373816136
aF-0.19685959786749929
aF-0.042476819287316225
aa(lp408
F-0.043004955139253634
aF-0.044463424732672001
aF0.14540590682245114
aF-0.19115450753232427
aF-0.3520387981135723
aF-0.04854653106935708
aa(lp409
F-0.17648751596325221
aF0.16446248839771804
aF0.090529684493791909
aF-0.00044354790092048966
aF-0.33261533278891681
aF-0.0082919126873316016
aa(lp410
F0.016006888136783675
aF0.031305682879391401
aF0.31311142508319051
aF0.07938427677306123
aF-0.37019570211905312
aF0.0086547220405375942
aa(lp411
F-0.2511527056774725
aF0.178503726800084
aF0.030229061240086678
aF-0.10740835943619331
aF-0.14776684004812612
aF0.020214817646491821
aa(lp412
F0.0087772887544485378
aF-0.10230401431210631
aF-0.14031616317873738
aF0.0077562189722763519
aF0.034766521748252288
aF0.15832611299867494
aa(lp413
F0.034136041753855213
aF-0.19294025862553615
aF-0.099394044463412698
aF-0.053326509393074199
aF0.25098130605916941
aF-0.099447486466578236
aa(lp414
F-0.012741447723752946
aF-0.046388119229653184
aF0.0042981336750647151
aF-0.067967865306085382
aF0.088324232442044071
aF0.12191563189957114
aa(lp415
F0.049325247849196632
aF-0.14158089091044615
aF-0.01208486370051497
aF0.026443065821859832
aF-0.025508311400626666
aF0.20700618554813638
aa(lp416
F-0.18581269524959509
aF-0.14065324701522811
aF-0.097247235171238483
aF0.11366662727566168
aF0.13693333083094689
aF0.033179272098488616
aa(lp417
F-0.10234567024228292
aF-0.10566076695319961
aF0.059152823309803967
aF0.028796467817569726
aF-0.14689103468139802
aF0.13961748943363389
aa(lp418
F-0.11468641435660655
aF-0.13516378849127647
aF-0.18344529790981956
aF0.0068152681615069079
aF0.039232728385878879
aF0.1029269417351384
aa(lp419
F-0.14882715239411265
aF-0.090694260943371616
aF-0.0087385509956546276
aF0.017647114719557183
aF0.13337746725769314
aF-0.016175195279122201
aa(lp420
F0.076102931547113339
aF-0.014316407220055272
aF-0.0034291007165274984
aF0.0093170649795420897
aF0.095268167820105845
aF0.12691881558151449
aa(lp421
F0.021710930343691003
aF0.071761146580467408
aF0.4370446147989363
aF-0.33128901007989636
aF0.014115356236272187
aF-0.21918022652752595
aa(lp422
F-0.018763545009821941
aF0.28098568554697639
aF-0.16745239202856735
aF-0.1838330166175442
aF0.024650290791976396
aF-0.052368631230338435
aa(lp423
F-0.048320494306138481
aF-0.02291661820229423
aF0.2463645922107314
aF0.016741161940649039
aF-0.049853237985617985
aF-0.10018175772952348
aa(lp424
F-0.13930754760083305
aF0.2379984656323676
aF-0.064036224982353965
aF-0.077647452987326449
aF-0.095620864655604348
aF0.02089605514288961
aa(lp425
F-0.23450457674136904
aF0.018592101459085873
aF0.040339721956428348
aF-0.3619537811510673
aF-0.41484084976079444
aF0.19162575101474619
aa(lp426
F-0.16515482148656221
aF0.088789848838730701
aF-0.081443974754138809
aF0.0057432256556711574
aF-0.066057538768396817
aF-0.0011151537383563301
aa(lp427
F-0.0011611921358672488
aF-0.073941613893491395
aF0.13947262327493404
aF-0.18616446993656066
aF0.041680994788099689
aF-0.0077754328066260156
aa(lp428
F-0.33518593271132979
aF0.1627397450494743
aF-0.12747141872626114
aF-0.10303141978401664
aF-0.051503681378826598
aF-0.044171654397382833
aa(lp429
F0.068555061546656013
aF-0.046475032814185212
aF0.23156555581120633
aF0.068772652594296435
aF0.0054179320152869595
aF-0.11580057979457418
aa(lp430
F0.026059954575321193
aF-0.027729136797651752
aF-0.30374313370931472
aF-0.0039830788119098737
aF-0.018184300708387037
aF0.1798989076992899
aa(lp431
F-0.095680671281519844
aF0.071415690884110331
aF0.04453832233011043
aF-0.073772415732205554
aF0.089277799161242552
aF0.27867611733962033
aa(lp432
F6.8340272389157928e-05
aF0.11763055468383204
aF-0.084045298002544552
aF-0.034536759841702923
aF-0.03929720593654757
aF0.23188164897071728
aa(lp433
F-0.089351923689981488
aF-0.10487911905307676
aF0.082418663856205929
aF-0.2611895254955483
aF-0.19110535492899841
aF0.26782068740937132
aa(lp434
F-0.0055339597005059638
aF0.16042855985956189
aF0.17791330075282807
aF0.066604460982253422
aF0.028718730437389844
aF-0.11360824635727634
aa(lp435
F-0.052324496732588592
aF0.1901792033062131
aF0.23247924833015604
aF-0.12767371259960236
aF-0.19460023925226877
aF0.24947518100400168
aa(lp436
F-0.0026947676203000707
aF-0.0043424115343229843
aF-0.12996491123418782
aF-0.044632480870474299
aF0.030139511520600508
aF0.10012455635913592
aa(lp437
F0.021751797645716938
aF-0.026186871600719881
aF-0.028026202437988576
aF0.12226677259382196
aF0.14186576450730559
aF-0.045896786009992127
aa(lp438
F0.1151181937100727
aF0.0073969812883535914
aF-0.042220436971618772
aF0.010441103910330063
aF0.062298653338332483
aF-0.035236690027774929
aa(lp439
F-0.18975899285234787
aF0.078188245384807592
aF-0.087994099079344426
aF-0.086702983112815962
aF-0.2522352303872562
aF0.13732210089299035
aa(lp440
F0.18958760463382557
aF-0.12612904212306991
aF0.2220358422799695
aF0.11922119605563229
aF-0.41919495539485391
aF-0.058001647447418196
aa(lp441
F0.026574886375882806
aF-0.0061229681882877104
aF-0.10696490722142651
aF0.22337174942630492
aF-0.26110764615167698
aF0.084589302651861389
aa(lp442
F0.13522981675456225
aF-0.11789584114875834
aF-0.045657786791527398
aF-0.21234538886647258
aF-0.33783663669264197
aF-0.089612499683497521
aa(lp443
F0.18660770418679751
aF-0.055104052022060312
aF-0.01065183889595539
aF-0.082947205614010588
aF0.17485073768618792
aF0.18325915799499903
aa(lp444
F0.075106389380367095
aF-0.1062119860983986
aF0.24166044745179824
aF0.25337869782091316
aF-0.36772253952592121
aF-0.12761091352524634
aa(lp445
F-0.079864208514614024
aF0.27373175740073941
aF0.046940298530666266
aF-0.23960916131537771
aF-0.25714000790721292
aF0.07271333299135159
aa(lp446
F-0.0013021721843993464
aF-0.11688333538410925
aF0.062067194651645792
aF-0.36590367479364239
aF-0.42486797713752888
aF-0.023028721452490717
aa(lp447
F-0.21773396448705742
aF0.079398974459876606
aF0.0041569229105032227
aF-0.035375857987450486
aF-0.28637711673442812
aF-0.034366901447254079
aa(lp448
F0.02655768659302667
aF-0.14895525175098423
aF-0.1470268775636997
aF-0.053731878440622341
aF-0.014285980249568786
aF0.10063167826767777
aa(lp449
F0.10769171687047449
aF-0.025467197046463091
aF-0.10091500048422448
aF-0.076872116977483848
aF0.18168119635536925
aF-0.24284501573467043
aa(lp450
F-0.11455120135075644
aF0.032615170294760479
aF-0.12945040023512072
aF0.0079985050311449056
aF-0.024151984786606625
aF0.060545236913854626
aa(lp451
F0.07441298656505603
aF-0.074455519917559124
aF0.15005644977252003
aF-0.040646704095646427
aF-0.042703513779157903
aF0.10173251395071378
aa(lp452
F-0.018621187387740934
aF0.17484185851618245
aF-0.14297300471255947
aF-0.015025858189115171
aF0.054921409745512573
aF-0.0066848046927598936
aa(lp453
F0.093887422318011934
aF0.04218926301590778
aF0.19640244020133102
aF0.02094332240973187
aF-0.084550088189497385
aF0.078645015932552714
aa(lp454
F0.015130514478199754
aF0.14029297420836323
aF-0.087804826347812642
aF-0.17041753652007657
aF-0.14095275787400308
aF0.058251455221162422
aa(lp455
F0.15835157441782122
aF0.014380656350537461
aF-0.17070305117346579
aF-0.079810140969258786
aF0.18424675691143283
aF0.048283470694159718
aa(lp456
F-0.12830425096131259
aF-0.0049482403157413493
aF-0.030348234255971995
aF-0.12391663069248091
aF-0.042601596846569764
aF0.081089578232292236
aa(lp457
F0.057953662602140396
aF-0.26213802655492607
aF-0.25899013452716557
aF0.022096143274276142
aF0.014644717533006406
aF0.14403020127336635
aa(lp458
F0.11757835747532897
aF-0.026115540100327274
aF-0.125533454044263
aF0.18235573136242905
aF0.19976512201388608
aF-0.1197618836628328
aa(lp459
F-0.07042809144379239
aF-0.0051727403998144692
aF-0.12282232950160174
aF0.019744908328924317
aF-0.064014650360436118
aF0.084827234201314036
aa(lp460
F0.10086359248510521
aF-0.03556902866441778
aF0.01918599621196538
aF-0.12230321897456539
aF-0.034564481361204422
aF0.098755963472498945
aa(lp461
F0.11142010362161908
aF0.11527097010199605
aF-0.083098332755671134
aF-0.051278270577690188
aF0.051524362378754462
aF-0.13717201315373717
aa(lp462
F0.054675291737637452
aF-0.019806203319765119
aF0.14099837425882775
aF-0.046738157675440262
aF0.021815841172140669
aF0.076425431165729252
aa(lp463
F-0.00068881434626650727
aF-0.062660064819165487
aF-0.18301204081519384
aF-0.0060878818999024215
aF-0.012849148939752076
aF0.12432181099000469
aa(lp464
F-0.11458843522232876
aF-0.11552005402381645
aF0.06888370228195094
aF0.048784735728292186
aF0.22088142567638586
aF-0.091730642139960072
aa(lp465
F0.021995698341059321
aF0.072716208245906244
aF-0.23760617747819707
aF0.086977038937071219
aF0.021619902774420267
aF0.16395610289535895
aa(lp466
F-0.095574071869224966
aF0.10250878103756374
aF0.034430062135873567
aF-0.10059529973588362
aF-0.050280021061247411
aF0.026075540191785523
aa(lp467
F0.079346973569185672
aF0.11452669417883618
aF0.12257895070090714
aF-0.042833710424418463
aF-0.089742364689142803
aF0.20819311035654195
aa(lp468
F-0.080713519946558926
aF-0.16542034917389309
aF0.027454869755506664
aF-0.0987419674469453
aF-0.038221498433696301
aF0.050315254052160058
aa(lp469
F-0.026282082137800519
aF-0.078900204379631148
aF-0.12695817676440393
aF0.091682109999144376
aF0.10302548317924777
aF-0.043886409584765841
aa(lp470
F0.16415695901758798
aF-0.022350265535213965
aF0.11573509569014367
aF-0.044449947991102329
aF0.12273840752827681
aF-0.04418543359701893
aa(lp471
F-0.03574103012400915
aF-0.041349091639771948
aF-0.062093191672324285
aF0.030442148728415244
aF0.089639293468516706
aF-0.10895208240238602
aa(lp472
F-0.053829835152572697
aF-0.037562027089726981
aF-0.098199563626217123
aF-0.09287154059527547
aF0.054248932645020911
aF-0.017463972405118693
aa(lp473
F-0.075733804617749478
aF0.14993763122443773
aF0.14700941642613166
aF0.047960477830698296
aF-0.10422109607884439
aF0.15733576310867153
aa(lp474
F0.076016449892160359
aF0.057354313896958699
aF0.052178542315295735
aF0.032313452359850392
aF0.067987971349185883
aF0.12908681030678182
aa(lp475
F0.074873598079780654
aF0.042575749155259662
aF-0.074649059251415989
aF-0.067233436066992572
aF-0.060159192148589204
aF0.027968541518444318
aa(lp476
F-0.19963405576866564
aF-0.14672199321357207
aF-0.13739700591957579
aF0.041463119272859957
aF0.15085557400620697
aF-0.059950665626525991
aa(lp477
F0.074880777016611125
aF0.10372128166123522
aF-0.0083969210451725219
aF-0.14034995405421188
aF0.00038857003607246769
aF-0.047374099106536255
aa(lp478
F-0.060981550193227638
aF-0.053286000103447549
aF0.099499403199845182
aF-0.029213893235582242
aF-0.03578464605359058
aF0.1018120022138046
aa(lp479
F-0.069942613674700699
aF-0.18846835338476212
aF-0.18225898984035324
aF-0.052518349647176443
aF-0.11616346874848654
aF0.0098058412842369214
aa(lp480
F-0.050894406925948446
aF-0.024640213058582258
aF0.1174120894026538
aF-0.037563333106103977
aF-0.09784867173679275
aF0.070773417490023666
aa(lp481
F-0.11714570861658948
aF-0.034278202632310309
aF0.0073720631280170326
aF-0.11736866554293651
aF0.044929223175406569
aF0.033171285089940633
aa(lp482
F0.059092115971672791
aF0.084875911234622847
aF-0.14920165737575364
aF0.096974990295454158
aF0.15713752479777907
aF-0.021579823637667955
aa(lp483
F-0.0085562242489463092
aF0.1158160941764988
aF-0.078007409633439703
aF-0.031063751320753806
aF0.0024455042157345798
aF0.0015464365520945433
aa(lp484
F0.072419535315176975
aF-0.24231208029303908
aF0.020344804444572616
aF0.000890378191662193
aF0.12662969312141056
aF-0.15077521253475626
aa(lp485
F-0.33761514333548193
aF-0.15427961334975987
aF-0.23898653623426977
aF0.097212831237515562
aF0.16805186338541953
aF0.032254659479838452
aa(lp486
F0.063613594472173143
aF-0.20623111356628065
aF0.028410019255708904
aF0.03149900978452571
aF0.20126143710118383
aF-0.18341132007563479
aa(lp487
F-0.35406502510996518
aF-0.34838729678921532
aF-0.38303820181360898
aF0.0027389362789044533
aF0.020424508522508156
aF0.11849831805897261
aa(lp488
F0.027964552442385396
aF-0.05668292795245778
aF0.0015174497767990365
aF-0.28465512124169406
aF-0.31539158953055885
aF0.31891270630050489
aa(lp489
F-0.24243059218555413
aF-0.10578831026086227
aF-0.35386930464436722
aF0.13908331713439312
aF0.051869717243174532
aF0.033446150742673604
aa(lp490
F-4.0100811320741816e-05
aF-0.11649546016582668
aF0.016599053287544237
aF0.20161857205278916
aF0.070549567060859839
aF-0.085262851456912508
aa(lp491
F-0.3021712217244904
aF-0.13783846081662535
aF-0.19857957857373237
aF0.13721952205169974
aF0.059134679946223102
aF0.020027442012102256
aa(lp492
F0.097341971249130826
aF-0.24787300167289011
aF0.077147080825391651
aF0.15586983368770382
aF0.11487410097628335
aF-0.21949687605027146
aa(lp493
F0.0067704969162372198
aF-0.0420977452695473
aF-0.23946498612394293
aF-0.098330676564765199
aF0.042045073424233338
aF0.15595855359209246
aa(lp494
F-0.17481646754397481
aF0.021573151521833655
aF0.12365066818205561
aF-0.058008102078377893
aF0.045005498839159011
aF0.33790066549780567
aa(lp495
F-0.051057138832913164
aF0.0036837769165724366
aF0.021981427613456058
aF-0.0063057971720963946
aF-0.18085225354441462
aF0.30786409955884869
aa(lp496
F0.17794862980949575
aF0.2275508532941036
aF0.0040129686966668254
aF-0.080295569722303825
aF-0.089466410785963957
aF0.064042655950898447
aa(lp497
F-0.01775883940249906
aF-0.19494580042770449
aF-0.11197056306742895
aF0.061105368027201956
aF0.064339711901779562
aF-0.0021204238854747592
aa(lp498
F0.14601237472073003
aF0.13653402669590745
aF0.045074542918779298
aF-0.093478202711992281
aF-0.035244988139684852
aF0.29868093733199141
aa(lp499
F-0.024105369730572462
aF0.066458102595363361
aF-0.061199137864320734
aF-0.060489224760780239
aF-0.058148291655543222
aF0.012233998790806886
aa(lp500
F0.26250442092052184
aF0.30454372831148141
aF-0.11538491407497886
aF0.17284136451221982
aF0.14974007823690269
aF0.028671185626793737
aa(lp501
F-0.067662935044730754
aF-0.049877596471378967
aF-0.063449301357169266
aF-0.033886613943427256
aF0.040908123470211388
aF0.099833364212795997
aa(lp502
F-0.18187994255376461
aF0.058057386937273497
aF0.12464152636213383
aF-0.14086558812794103
aF-0.40946703086743225
aF-0.030238625591160227
aa(lp503
F0.099552775162998514
aF-0.25005807668133545
aF-0.11869426228212597
aF0.27355476636560122
aF-0.47579373748128312
aF0.030543198956225093
aa(lp504
F-0.19706491715271407
aF0.22286977787617804
aF0.05889568082601563
aF-0.15058000214673092
aF-0.28042518897432667
aF0.0029585963894377906
aa(lp505
F0.045894515216409408
aF-0.058968497401217228
aF0.09729881798247858
aF-0.19118065091497721
aF-0.4141272384770463
aF-0.022081491506676675
aa(lp506
F0.074658646300240439
aF-0.014940065863472185
aF-0.18322438131353722
aF0.16860312259970744
aF-0.036426478761573566
aF-0.043880453195227348
aa(lp507
F-0.20919986764824466
aF-0.10807916173791064
aF0.37698177287325568
aF-0.17923002560395473
aF-0.45836077117219282
aF-0.1899535200154715
aa(lp508
F-0.24045769249001944
aF0.27304903927392282
aF0.10253296672037751
aF-0.34344408884736366
aF-0.35040099616209963
aF0.025042801448455807
aa(lp509
F-0.080494548515856773
aF0.038813128357252716
aF0.25213863096738198
aF-0.44579390248267059
aF-0.50608442027737821
aF0.059674067440077916
aa(lp510
F-0.18397927207828768
aF0.17672288493391461
aF0.12547926681666483
aF-0.24417024092951237
aF-0.20662013821231359
aF-0.072206882002957509
aa(lp511
F0.017296969382591211
aF0.0092885600417824416
aF-0.11768708693970163
aF-0.023090032130895662
aF-0.071167051584455646
aF0.044183909520477217
aa(lp512
F0.07644292685346879
aF0.1878368470666672
aF0.031224001076364687
aF-0.093151002567061089
aF-0.075402765159164387
aF-0.035499080015018024
aa(lp513
F-0.089896050584946902
aF0.13537857909524859
aF-0.15725301707390271
aF-0.074040289937023246
aF-0.046755101670276453
aF0.012272830898967971
aa(lp514
F0.39812113095260215
aF0.33736197543897978
aF-0.067043376826023446
aF0.11784473239201942
aF0.24069693938006834
aF-0.046709006578093494
aa(lp515
F0.088555086016701368
aF-0.038488476435575375
aF-0.001597985472820973
aF-0.19172649302169775
aF0.095983400928021212
aF-0.18629058225774775
aa(lp516
F0.25069639342603001
aF0.27504333581049206
aF0.0034433188487767901
aF0.1565040710145027
aF0.22337607866679982
aF-0.13825064224463685
aa(lp517
F-0.052999593106988326
aF0.0048879119519537927
aF-0.085248216748381025
aF0.043485720398944661
aF-0.025161267716835814
aF0.046862095039730899
aa(lp518
F0.10226439072146841
aF0.37102211160085508
aF0.18649119047775731
aF-0.21257186343268725
aF0.0025736033223470538
aF0.062851243287753086
aa(lp519
F-0.064299132194102299
aF0.08053213114774288
aF-0.019584915704531518
aF-0.0081063265639669743
aF0.047999113426397087
aF0.13464250859359528
aa(lp520
F0.0095164625906839495
aF0.056993017039143799
aF0.040880927397410206
aF-0.058673632704680824
aF-0.056244552979057241
aF0.15758001138722841
aa(lp521
F0.023244616281979089
aF0.11946891489661353
aF0.063100350022342572
aF-0.067466859322923553
aF0.13842594196460895
aF-0.098376250840399901
aa(lp522
F0.061078339252914199
aF0.10052290415602622
aF0.022989174452755761
aF-0.1116532374581691
aF0.0395037400791566
aF0.01912156501346739
aa(lp523
F-0.015212988367942002
aF0.15288815148990323
aF0.080173832037879075
aF-0.018370401801458547
aF-0.14241128102434336
aF0.30418457487750644
aa(lp524
F-0.13046658477327344
aF-0.13205646257613016
aF0.063544701455205965
aF-0.13703928417060687
aF-0.15597853081925572
aF0.0015692789320026213
aa(lp525
F0.071409455990374474
aF0.15141921208926107
aF0.16782476343016678
aF-0.036267713423446278
aF-0.20371524656136916
aF0.053589961061758076
aa(lp526
F-0.091589052150039346
aF-0.06915826021624194
aF-0.093050769953174239
aF-0.0026047200921216133
aF-0.082966258929732514
aF0.087471449161353132
aa(lp527
F-0.10980626008964674
aF0.18520331664276315
aF0.15109864786056806
aF-0.045405264535908291
aF0.082089938162777751
aF-0.12579904052612831
aa(lp528
F-0.031584853832748207
aF0.13040297459694594
aF0.14115316064696473
aF-0.036297744594388295
aF-0.02572854556515421
aF0.052105044488784898
aa(lp529
F0.002262948488445667
aF0.15015596702184464
aF0.18374661454914157
aF0.11991761761107235
aF-0.35912424615423805
aF0.088240171109022811
aa(lp530
F0.21715481957353527
aF-0.06692384268803081
aF0.10937130175869379
aF0.16355471634174321
aF-0.33188724743425713
aF-0.077569278345902326
aa(lp531
F-0.12795153657012442
aF0.21171327049572605
aF0.12320080051360852
aF-0.063620314632127875
aF-0.25124517508690958
aF0.057268655740915983
aa(lp532
F0.20439231085611564
aF0.03984789069177809
aF0.13150062661062525
aF0.22279934175585042
aF-0.4321637801795325
aF0.052287781922927649
aa(lp533
F0.18320168908917728
aF-0.13420560228676851
aF0.16942371447452848
aF0.17119450100286909
aF0.053899575456208715
aF0.17615633091882693
aa(lp534
F-0.020893744251611283
aF0.050748363453782433
aF0.31020827818390284
aF-0.23922046038346029
aF-0.50226408629172514
aF-0.13893037648879011
aa(lp535
F-0.29736017541910398
aF0.05886686680923281
aF0.11064113011094945
aF-0.2075021851883902
aF-0.22025493600458151
aF0.029293268367220321
aa(lp536
F-0.022912196394704123
aF0.10263294970877379
aF0.060915719356641779
aF-0.22988177352294287
aF-0.3612886639674146
aF-0.15967608783762605
aa(lp537
F-0.079106639025450357
aF0.12798021753256464
aF0.027397260496294883
aF-0.15328119984477365
aF-0.22361939353942592
aF0.0068727722523134818
aa(lp538
F0.13649690813642976
aF-0.045959626488805305
aF-0.33228812819154235
aF0.044300104923933034
aF-0.022150183947498802
aF0.064205851694386543
aa(lp539
F-0.010745369779354617
aF0.25026460866118833
aF0.091412733043907193
aF0.015301465964592141
aF0.11834175709876445
aF-0.11533915604982016
aa(lp540
F0.16002656608314803
aF0.17163807153114138
aF-0.19505726615616434
aF-0.11365284234693128
aF0.048230982857070559
aF-0.0075786444237776265
aa(lp541
F0.10840673343455448
aF0.23776462345581012
aF-0.070414198894418467
aF-0.24076557394082065
aF-0.11718296305419201
aF0.18212913608623832
aa(lp542
F0.10562738097779228
aF-0.18131449601111127
aF0.12950394904496715
aF-0.18261151068361664
aF0.021978732023204911
aF0.097659139923204297
aa(lp543
F0.10036617431555461
aF0.26803139795300607
aF0.065075006257906423
aF-0.073813688536577202
aF-0.11197503747354673
aF0.068802857561410219
aa(lp544
F-0.0052529566287740437
aF-0.17225810974671565
aF-0.14256711810358738
aF0.10000120892912796
aF0.034595785520933266
aF0.17176023899133835
aa(lp545
F0.34397974186414426
aF0.25814428880877344
aF-0.031793638795976666
aF0.23624509974153973
aF0.16685912926336097
aF-0.17800538369682745
aa(lp546
F0.01412664168722424
aF-0.011584489248748959
aF-0.10873868418850788
aF-0.048701754535252682
aF-0.016105923384156052
aF-0.019259891444623947
aa(lp547
F0.19903022187323777
aF-0.099061041282228535
aF0.016562330437970302
aF-0.0081502251694831728
aF0.13942101706682114
aF-0.1300350862528564
aa(lp548
F-0.10145176032654023
aF-0.033698821707209697
aF-0.25999324939576846
aF-0.086423801711507112
aF0.12632860454593217
aF-0.19338513557855905
aa(lp549
F0.15430337396573665
aF-0.099771166309642237
aF0.18744965593405899
aF-0.38182078739180714
aF0.13913398713137493
aF-0.20330130172592351
aa(lp550
F-0.032450249546090562
aF0.01914443415302915
aF-0.21235578886376105
aF-0.0047132925531768637
aF0.055732341829800761
aF-0.089221020612647417
aa(lp551
F0.008051121118450362
aF-0.088530579221205746
aF0.06268510655735568
aF-0.30681867987202577
aF-0.26350414611000533
aF0.049279309011479991
aa(lp552
F0.016236634707214436
aF-0.0053069818983662821
aF-0.35356115973329122
aF0.050237942520606614
aF0.20837980145056012
aF-0.15637766856786436
aa(lp553
F0.25218990354672194
aF-0.17863846477430154
aF-0.08609434742941928
aF0.16767284901530113
aF0.20160536855266795
aF-0.064498225701891981
aa(lp554
F-0.0820765545876804
aF-0.045771911265144648
aF-0.30912303103749833
aF0.03477645992621721
aF0.15934813968663189
aF-0.0065626724167570797
aa(lp555
F0.0049475380878541949
aF-0.050390139458166117
aF0.086901057008028595
aF-0.019746799949652647
aF0.028840420367029787
aF-0.17060989808255039
aa(lp556
F0.077636742965229946
aF-0.018339341607995403
aF-0.31620656159201521
aF0.018123690182436297
aF0.017586716259214766
aF0.25682711004924924
aa(lp557
F-0.15383955349169595
aF-0.33384800910007589
aF-0.31021420468196459
aF0.046530086718289287
aF0.26872779492394416
aF0.25001436164334984
aa(lp558
F-0.0078449594257091384
aF-0.032927157383451616
aF-0.25869611879297605
aF0.0061433211182374678
aF-0.034483225845962195
aF0.36550735582137933
aa(lp559
F-0.27867508496944576
aF-0.28052050684127594
aF0.23478233522614153
aF-0.006009225057485636
aF-0.10715697904689042
aF0.098357747147266888
aa(lp560
F-0.049325441307750184
aF-0.13725577609415651
aF0.019312124538352515
aF-0.14124652993512676
aF-0.13015428847275512
aF0.1683477942913032
aa(lp561
F-0.20394029806866504
aF-0.11247921777950957
aF0.22676350293498376
aF0.061009064843458388
aF-0.04252629090853436
aF0.17943342054395678
aa(lp562
F0.045860833429644393
aF0.071428813380669462
aF-0.21086382942716322
aF-0.10314437873915332
aF-0.062341842396163652
aF0.033640862690469016
aa(lp563
F-0.34096122812157947
aF-0.25063632283148202
aF0.10744477021325866
aF-0.059204026862491162
aF0.00061497085940015678
aF-0.073707087454397455
aa(lp564
F-0.089364093327902627
aF-0.072558667351690018
aF-0.074620523179094206
aF-0.21766714344114818
aF-0.026476366476394959
aF0.078244820539546567
aa(lp565
F0.11854383558322959
aF-0.12251183283434092
aF-0.10783660763937275
aF-0.011140058011822464
aF-0.049405571314957132
aF0.073341980719834415
aa(lp566
F-0.0013319154217759325
aF-0.038500844423202306
aF-0.024030577623970203
aF0.15290522598761291
aF0.1505802805251763
aF-0.081985536426791628
aa(lp567
F-0.040532475870827603
aF0.22939132388555022
aF-0.055514537646447842
aF-0.072284690567684939
aF-0.11085921691284732
aF0.062573173629376214
aa(lp568
F0.058684137743873328
aF0.077743298914875247
aF0.023236185182401264
aF-0.10243251726966425
aF-0.040218632539895313
aF0.15838381753297509
aa(lp569
F-0.025585865242345879
aF-0.011546410972597343
aF-0.10998660350937449
aF-0.042064943194226295
aF0.058105890396782878
aF-0.041176316379254979
aa(lp570
F0.067758089331695179
aF0.11355655863344889
aF0.20280693827069235
aF-0.1024441579506481
aF-0.017958932382535486
aF-0.093585652337861286
aa(lp571
F0.10828026470393184
aF0.11869990969184072
aF-0.1203767303476062
aF-0.070469269461800571
aF-0.047675245814016762
aF0.16342481356425831
aa(lp572
F0.094156060634809843
aF0.14908078495926899
aF0.034034936302231228
aF0.040711618221224863
aF0.20511930570795678
aF-0.1148089620729988
aa(lp573
F-0.030503246519191566
aF0.13990712511261588
aF-0.086021758493411496
aF-0.057607953886476868
aF-0.085786565810935897
aF0.058418045130038627
aa(lp574
F-0.046476206413109136
aF-0.0071772190301273003
aF-0.06178937104452422
aF-0.065288495200445176
aF0.061129961503680302
aF0.15811164693610952
aa(lp575
F-0.044414682837643542
aF0.069410294875099907
aF0.10028249394279652
aF-0.073528522999580861
aF-0.057420177400253194
aF0.15789125254137013
aa(lp576
F0.11106054799785538
aF-0.20246732181404647
aF-0.080198235135899965
aF-0.0082921343672016142
aF0.08253473374969364
aF0.13089103516284892
aa(lp577
F0.018637481264560989
aF-0.10372828844071759
aF-0.17599090048309862
aF0.15018231908943036
aF0.16732476702561827
aF-0.038361108420004196
aa(lp578
F-0.061248930888883196
aF-0.14713756111175141
aF0.045251486769210369
aF-0.13369678845636304
aF-0.027769021461319376
aF-0.04064103524828161
aa(lp579
F-0.15066197140105062
aF-0.08599748411915914
aF-0.026293021456335171
aF0.035823323255637161
aF0.046301213100123445
aF-0.059358706631289795
aa(lp580
F-0.080220049699093923
aF-0.089891479652545861
aF-0.09375595553749301
aF-0.13062111428561776
aF0.02121441908003752
aF0.062336951250003679
aa(lp581
F-0.095498410943393452
aF0.074369841719941543
aF0.14086519399589767
aF0.13389667603238603
aF0.00061365315993018837
aF0.2196252570592796
aa(lp582
F0.13056181084504026
aF-0.053921107298347828
aF0.016209356559296343
aF0.027769712970138243
aF0.13246622271523828
aF0.13231731569711636
aa(lp583
F-0.019825355595236922
aF0.035509979005581012
aF-0.079552295042699825
aF0.050083592519952105
aF0.01871783181596573
aF0.078740649589261413
aa(lp584
F0.25122278737185799
aF0.23158345510445147
aF-0.20862805719969496
aF0.064893967000173317
aF0.15404918236557907
aF0.37151179400711548
aa(lp585
F0.15588166530222061
aF0.095388911476393376
aF-0.12171137156623819
aF-0.072569037548590815
aF0.050100133740072696
aF0.18966920005088017
aa(lp586
F0.081979608276194438
aF0.020849992580121719
aF0.011752970230990154
aF-0.010849691411020589
aF-0.082991300427469217
aF0.1073826682520613
aa(lp587
F0.057720037112032052
aF0.19268848453000803
aF-0.15552601734793403
aF0.07541729727959523
aF0.045722046997062143
aF-0.049658110483357276
aa(lp588
F0.035959956018026186
aF-0.015057412814643003
aF0.15746565065365822
aF0.055526326962511578
aF-0.030661195938842992
aF0.19173259256766029
aa(lp589
F-0.073927924961014274
aF-0.058959984077999399
aF-0.14872572092111172
aF-0.060995395032376824
aF0.16978030000885092
aF0.0787582759280058
aa(lp590
F0.11694675962739288
aF0.067496925262641214
aF-0.27371652530656476
aF0.1647584630749791
aF0.27078169572450655
aF0.019572349884778854
aa(lp591
F0.043491471876383456
aF0.10673103838943535
aF-0.027294233227400849
aF-0.048756061979721876
aF-0.022721629306464049
aF0.083130950368717454
aa(lp592
F-0.12073444072651007
aF-0.018511830647531331
aF0.016976970064670947
aF-0.13988638468540288
aF-0.24144706656134396
aF-0.010289916522329742
aa(lp593
F0.031735686503788961
aF0.12955279857041274
aF0.22156259867354339
aF0.1820182235063515
aF-0.40268518034811673
aF-0.0031315854600561964
aa(lp594
F-0.14009924350254802
aF0.10279466636810686
aF0.084727700666436229
aF-0.10958499200786485
aF-0.21009210960248351
aF-0.02366673089500965
aa(lp595
F0.036725459979045645
aF0.013011928215613797
aF0.11630879695509112
aF-0.25127938642874248
aF-0.57396849810561279
aF0.0076915483012498335
aa(lp596
F0.13264161025525795
aF-0.14254448873722275
aF-0.17246241878742699
aF-0.17260323322382007
aF-0.042702390056490153
aF0.18121657493705273
aa(lp597
F-0.084215664117164857
aF0.014524379931865884
aF-0.0019271752910321586
aF-0.1156163619868948
aF-0.47463340052969039
aF0.0018413946044788184
aa(lp598
F-0.2633814215809378
aF0.24783868269622458
aF0.14125530735705302
aF-0.21970301694485175
aF-0.35121425346028695
aF-0.021637754996285088
aa(lp599
F0.048142265267925484
aF-0.036128252714737658
aF0.078356326349509731
aF-0.19243090799941398
aF-0.36963309762474456
aF0.010907866755504812
aa(lp600
F-0.13523331742446629
aF0.23254835771499077
aF0.087033687530126747
aF-0.25723403411468909
aF-0.35246692467093116
aF-0.094195018240544492
aa(lp601
F0.007039311989389385
aF-0.067533031584818312
aF-0.18770290933746728
aF-0.088057428485773748
aF0.03949614314371086
aF0.11925604409275464
aa(lp602
F-0.03338221327944324
aF0.014686284227346542
aF-0.0088977136705487292
aF0.030635331556722142
aF0.098573166342505056
aF-0.11380800269600105
aa(lp603
F-0.049818537576585734
aF-0.16127031421274435
aF-0.0200517313631682
aF0.015232090869474994
aF-0.057307140823631093
aF0.054454609828810799
aa(lp604
F-0.16165892378715557
aF-0.16073394722706935
aF-0.020329257121044362
aF-0.10968993803302872
aF-0.059689793139481022
aF0.10288284272573539
aa(lp605
F-0.011612533841587613
aF0.062472727028430874
aF-0.050424627565862329
aF0.16634453045949688
aF-0.027231096394622789
aF-0.056314408860505927
aa(lp606
F-0.12864400364644868
aF-0.022817283908167008
aF0.11694283920097068
aF-0.019324899445383167
aF-0.068344440454518277
aF-0.067677678804769922
aa(lp607
F0.049650270364954174
aF0.065035747488518703
aF-0.11470514779316346
aF-0.10851679331233403
aF-0.015076133107835923
aF0.049171353793862962
aa(lp608
F-0.37903544384278082
aF-0.1935804597641613
aF0.044033927352189216
aF0.10852097216705449
aF0.071639171676685126
aF0.084230294173972126
aa(lp609
F-0.099839570025749683
aF0.0054738686263763733
aF0.036451102838529613
aF-0.0099925112309219612
aF0.0037275572377502919
aF0.054445724270731022
aa(lp610
F0.10620936306103769
aF-0.077088945199824718
aF0.28058607634095944
aF0.024824382595801324
aF-0.082161827253781142
aF-0.13577940601326008
aa(lp611
F0.11632560362595201
aF0.55464961997159112
aF-0.23469537441018223
aF-0.092971433255804273
aF-0.074163731983485748
aF-0.0071147001439938878
aa(lp612
F-0.025840191798384045
aF0.085145013634008587
aF0.14914304217976168
aF-0.057724697235064681
aF0.025025534954995269
aF-0.15150491728940765
aa(lp613
F0.06879247043645989
aF0.2321526792489027
aF-0.17163105130271245
aF0.057281670579058579
aF0.019549692093376068
aF0.038768946347658734
aa(lp614
F-0.20636803900122219
aF-0.095612823431653227
aF0.066924919092159654
aF-0.045712330728444335
aF-0.40232717583215066
aF0.095317701874534033
aa(lp615
F0.11806195787496461
aF0.35191907445527615
aF-0.1118568126235196
aF0.065080318770710896
aF0.057861023904879273
aF0.039847932964835901
aa(lp616
F0.31886803018241044
aF0.12641949657002152
aF0.073799351184714215
aF0.097281581726284302
aF0.029679173879386744
aF0.03666202477379378
aa(lp617
F0.14749650109932028
aF0.47387770398337609
aF-0.17631171577255642
aF-0.0049131081452079015
aF-0.024545430780424329
aF0.23995510068881101
aa(lp618
F0.032209438997994146
aF0.041051815836815699
aF0.28412099675656743
aF0.10570844250401708
aF0.044240167660748474
aF-0.080382646232104837
aa(lp619
F-0.0068793317579948741
aF-0.072716903624913592
aF-0.14867362771288969
aF-0.0043557230363606503
aF-0.086577591183842645
aF0.12078305241137018
aa(lp620
F-0.21904866848843285
aF-0.070134479419157666
aF0.090072997631817683
aF-0.16991569817989868
aF-0.071808244542107172
aF0.13562254588764314
aa(lp621
F0.010603494696874506
aF0.0060741622913944408
aF-0.21411305463431821
aF0.0046867972596594965
aF0.011524113531247972
aF0.020894124596156659
aa(lp622
F-0.037553112019437195
aF-0.12261574108165001
aF-0.21499561689750243
aF0.18182365793777006
aF0.22216357815344059
aF0.071318216367855569
aa(lp623
F0.10568289987820689
aF-0.0215683513165012
aF-0.028204428431214484
aF-0.098713268407487897
aF-0.0099617447227466349
aF-0.10869620012966133
aa(lp624
F-0.095188611437026768
aF0.067948967044613909
aF-0.036935992095619027
aF0.072068494186456916
aF0.1800068092885391
aF-0.014811815230076896
aa(lp625
F-0.011648549644887088
aF-0.073187671672133109
aF-0.05824855430771532
aF0.083159792859810844
aF0.081980887934628918
aF0.035024596869444695
aa(lp626
F-0.10435265212323279
aF0.059713909727736804
aF0.1015786204940947
aF-0.13524185624298582
aF-0.062200682185490588
aF0.035321365412450768
aa(lp627
F-0.057569100694079826
aF0.0097870204431382783
aF-0.077097498334265421
aF0.036348139470574706
aF0.11955638765961865
aF0.13408093172126498
aa(lp628
F-0.059814911424682343
aF0.13636452927714168
aF0.092328478464657568
aF-0.10612932036734836
aF-0.29155697330763103
aF0.085565313324020578
aa(lp629
F0.19533324731172433
aF0.00062975329806194951
aF0.0019711728720152749
aF0.19329871411236996
aF-0.44676264080283712
aF0.17076979866776276
aa(lp630
F-0.16350452437990617
aF0.040347973686145996
aF0.048363122696910572
aF-0.15676372777345582
aF-0.11895978842842521
aF0.10188340093397408
aa(lp631
F0.016378033059598288
aF-0.077542734837236421
aF-0.0018862321946400546
aF-0.21544711797722427
aF-0.39240116068074532
aF-0.13260240595715952
aa(lp632
F-0.11040075820436712
aF0.073808139887613644
aF0.14477975358263501
aF0.10289643262541842
aF-0.029789009914974102
aF0.058291162949995923
aa(lp633
F0.13990496391821688
aF0.12607150012695803
aF0.10664875354558197
aF-0.21693746214465748
aF-0.45024645488704285
aF-0.074349474657450829
aa(lp634
F-0.17846361753235013
aF0.25205790096537928
aF0.15141918161751264
aF-0.17843943875462759
aF-0.22500027774974202
aF-0.11339213694527175
aa(lp635
F-0.094715495875172306
aF0.060989755003660009
aF0.20394677380075046
aF-0.21208230895992505
aF-0.41691692043205503
aF-0.010290066194161585
aa(lp636
F-0.15862390478656205
aF0.34698890396704291
aF0.19636400431091042
aF-0.27908944382710982
aF-0.21367856784876504
aF0.10087439056016717
aa(lp637
F0.10809710107486407
aF0.10426391474244998
aF-0.076332775603769401
aF-0.034753263058362308
aF-0.03417341863521621
aF0.0754062197161013
aa(lp638
F-0.0038623630463276754
aF0.027691483867967492
aF0.18954357028859367
aF-0.15797291580084813
aF0.0015028104344195594
aF0.15217990233562531
aa(lp639
F0.11626773188644686
aF0.021076770346311058
aF-0.19411789970005222
aF0.075919382738221824
aF0.089558588187510571
aF0.066440087196377035
aa(lp640
F0.059103043276332236
aF-0.10491169001486733
aF-0.12220050497195153
aF0.1503401367033956
aF0.1702883905098205
aF0.11297372593296272
aa(lp641
F0.0050596486553904363
aF-0.13864820460751104
aF-0.096642821698828082
aF0.037406916758873837
aF-0.088617134457733393
aF0.13536843055786174
aa(lp642
F0.0044754928994721341
aF-0.04963115813115003
aF-0.05005059809859104
aF0.11765320306192978
aF0.11514771566055307
aF0.033862156405020737
aa(lp643
F-0.14829751758237111
aF-0.013734403353838054
aF-0.13142025203470384
aF-0.022442016364969296
aF0.090378053531847913
aF0.068635612082375327
aa(lp644
F-0.021462291179029341
aF-0.024113554148611417
aF-0.029398251509461536
aF-0.049716916927656563
aF-0.037917126101218834
aF0.088159157588360265
aa(lp645
F0.24963295467543331
aF-0.005789993726516369
aF-0.16797886123326591
aF-0.0050152353138273867
aF0.083190427878352083
aF-0.023544643868632562
aa(lp646
F-0.036292470240845635
aF0.018257910036261066
aF-0.078668485971056204
aF-0.031267512739161986
aF-0.09254670303330359
aF0.0322890744868332
aa(lp647
F0.2613053577055513
aF0.27375973913730317
aF-0.033115678471213675
aF-0.055126927907266469
aF0.034735763264607748
aF0.11296286117819376
aa(lp648
F-0.10452710197700527
aF0.10367718779295475
aF-0.12809987058594094
aF-0.11173409978922115
aF0.007151528720707811
aF0.11522526036825853
aa(lp649
F0.39870762815292921
aF0.32158140319930317
aF-0.13895464143899375
aF0.085310163029957781
aF0.073125870795945944
aF0.07381720680702733
aa(lp650
F0.034480137015168777
aF-0.0058910339037803183
aF0.0080903435964483905
aF0.11275892324266323
aF-0.061071681687784596
aF0.023115765560681428
aa(lp651
F0.20100377368048022
aF0.368540239926469
aF0.045383084566936176
aF0.20446048664656907
aF0.065057069994523417
aF-0.044245039491571977
aa(lp652
F-0.012169284523114086
aF0.089578816454034399
aF-0.101250688049143
aF-0.042952022569415729
aF0.071515228136135062
aF0.11565227430582967
aa(lp653
F0.19625230769452304
aF0.17733400340560168
aF0.041622515086456889
aF0.048929885685606966
aF-0.126096903950912
aF0.057190833232694659
aa(lp654
F0.11871107698906222
aF-0.14133497342778958
aF-0.072241618008663383
aF0.048672505462221155
aF0.0159148329360904
aF0.096816942700038655
aa(lp655
F-0.14296408048156758
aF0.042220655343581603
aF-0.18358607997810492
aF-0.1631794451767721
aF-0.084344143574111977
aF0.26137945615164682
aa(lp656
F0.10139389610515027
aF-0.074108480219213235
aF0.024139556263863628
aF-0.1366107512043051
aF-0.019765120259443734
aF0.17619452744886027
aa(lp657
F-0.11727833281178694
aF0.083059130937334108
aF0.087021148216421623
aF-0.038339892362983227
aF-0.12238869666850685
aF0.18173227237690892
aa(lp658
F0.023728491131055816
aF0.057147025671583772
aF0.046184842514786752
aF0.20319850483463833
aF0.12602981354133228
aF-0.042542273321893198
aa(lp659
F0.064483685234527521
aF-0.073230287499107094
aF0.01913839773384271
aF0.19169502343962902
aF-0.18062681322312987
aF0.083384806659259514
aa(lp660
F0.062653395670070125
aF0.0012858254039899964
aF-0.22660610970231779
aF0.12913757315181107
aF0.14270395857876944
aF0.021787289144093808
aa(lp661
F0.12020516513251318
aF-0.036614315749471479
aF-0.0056283390298138133
aF0.092600232672727573
aF0.0048721707479154391
aF0.18700977422102619
aa(lp662
F-0.051413300008321235
aF0.025975001013347619
aF0.029741991645014513
aF-0.1303835565234496
aF-0.0826500599379065
aF0.12379434023551146
aa(lp663
F-0.12485801756020115
aF-0.032814944211486077
aF0.00488328105644391
aF-0.13524377413369787
aF0.081471173408908221
aF-0.04637235980670424
aa(lp664
F0.014437775699244305
aF-0.13061135041513117
aF-0.17238595231901246
aF-0.059980866773152987
aF0.0071907743107202634
aF0.091743586372221922
aa(lp665
F-0.086170516174296247
aF0.061230499295079142
aF-0.030602853816294656
aF-0.14450091194294046
aF-0.11332031299481098
aF0.20192781807270374
aa(lp666
F-0.034476671955061565
aF0.072360309812333448
aF-0.13017952507868766
aF-0.16925562545040937
aF-0.074159955293179813
aF0.098450923299538876
aa(lp667
F-0.09155208184781799
aF-0.12051582480501175
aF-0.090593067495414417
aF-0.03425173144012706
aF0.080388372019720197
aF0.054290904583406213
aa(lp668
F-0.10266066861671588
aF0.023988980438769542
aF0.15242676387211385
aF0.032568134907509178
aF-0.13279988543693111
aF-0.10081870101685758
aa(lp669
F0.11562033106011869
aF-0.14151216822537752
aF-0.1874467608899171
aF0.15332694275641576
aF0.20967187031080017
aF0.0088911461026912886
aa(lp670
F0.096874527400703611
aF0.015130921967441561
aF-0.23752251462925336
aF-0.056358269150183674
aF0.078331577487147544
aF0.10521090197422237
aa(lp671
F0.060499359793373522
aF0.024455637048420038
aF-0.041781820113802833
aF-0.084499448778816932
aF-0.12027975772097751
aF0.28671929795782464
aa(lp672
F-0.10242628127129957
aF0.10331121971195763
aF-0.017833438419060321
aF0.025710704930264148
aF-0.071487140880597905
aF0.061656717191130028
aa(lp673
F0.026182206833883039
aF-0.14815330060771612
aF0.23464351661963931
aF0.018030436263537678
aF-0.046594812279030395
aF-0.065941735333604631
aa(lp674
F-0.46065326796579598
aF-0.17882156285612311
aF-0.11151537740321525
aF0.080239842049337387
aF-0.0060201046172267281
aF0.049694777888537052
aa(lp675
F0.085388745217538073
aF-0.11485508809001448
aF0.15583610401645712
aF0.15705596374261438
aF-0.0074765599840459253
aF0.043010910604435237
aa(lp676
F-0.3592238626345659
aF-0.17668213027934765
aF-0.26266948684214575
aF-0.022418186549522778
aF0.073042670134003035
aF0.084736286151016943
aa(lp677
F-0.084750102527475488
aF0.17910236689937242
aF-0.23824324348884199
aF-0.19237644236736789
aF-0.13539007375786216
aF0.35785625692876405
aa(lp678
F-0.3358802502318563
aF-0.16938681266697445
aF-0.17679263390083197
aF0.035271229372087154
aF0.055671998121681596
aF-0.027086618694350639
aa(lp679
F-0.0006456835091032141
aF0.12413795995280012
aF0.19262918673055582
aF0.08419512378168395
aF-0.049956817423013229
aF-0.093460282368657666
aa(lp680
F-0.41899034125726353
aF-0.14760758292522022
aF-0.10413991870846051
aF0.040046915439161446
aF0.10206765348657544
aF0.035047392102521002
aa(lp681
F-0.10684232406683261
aF-0.06585148766964205
aF0.06257280377221075
aF0.033211363783638558
aF0.13303823062291958
aF-0.063861824329196307
aa(lp682
F0.025590886912048617
aF0.10631542353128878
aF0.038840149324857728
aF-0.19381344147927365
aF-0.29235259863757418
aF0.19783296237927175
aasb.